target datalayout = "e-m:e-p270:32:32-p271:32:32-p272:64:64-i64:64-i128:128-f80:128-n8:16:32:64-S128"
target triple = "x86_64-pc-linux-gnu"

; Function Attrs: mustprogress uwtable
define noundef ptr @_ZN3nix15makeProgressBarEv() #5 personality ptr @__gxx_personality_v0 {
  %1 = alloca ptr, align 8
  %2 = alloca i32, align 4
  %3 = call noalias noundef nonnull ptr @_Znwm(i64 noundef 320) #17
  %4 = invoke noundef zeroext i1 @_ZN3nix10shouldANSIEv()
          to label %5 unwind label %7

5:                                                ; preds = %0
  invoke void @_ZN3nix11ProgressBarC2Eb(ptr noundef nonnull align 8 dereferenceable(314) %3, i1 noundef zeroext %4)
          to label %6 unwind label %7

6:                                                ; preds = %5
  ret ptr %3

7:                                                ; preds = %5, %0
  %8 = landingpad { ptr, i32 }
          cleanup
  %9 = extractvalue { ptr, i32 } %8, 0
  store ptr %9, ptr %1, align 8
  %10 = extractvalue { ptr, i32 } %8, 1
  store i32 %10, ptr %2, align 4
  call void @_ZdlPv(ptr noundef %3) #18
  br label %11

11:                                               ; preds = %7
  %12 = load ptr, ptr %1, align 8
  %13 = load i32, ptr %2, align 4
  %14 = insertvalue { ptr, i32 } poison, ptr %12, 0
  %15 = insertvalue { ptr, i32 } %14, i32 %13, 1
  resume { ptr, i32 } %15
}