; Function Attrs: mustprogress uwtable
define noundef nonnull ptr @_ZN3nix15makeProgressBarEv() local_unnamed_addr #4 personality ptr @__gxx_personality_v0 {
  %1 = tail call noalias noundef nonnull dereferenceable(320) ptr @_Znwm(i64 noundef 320) #23
  %2 = invoke noundef zeroext i1 @_ZN3nix10shouldANSIEv()
          to label %3 unwind label %5

3:                                                ; preds = %0
  invoke void @_ZN3nix11ProgressBarC2Eb(ptr noundef nonnull align 8 dereferenceable(314) %1, i1 noundef zeroext %2)
          to label %4 unwind label %5

4:                                                ; preds = %3
  ret ptr %1

5:                                                ; preds = %3, %0
  %6 = landingpad { ptr, i32 }
          cleanup
  tail call void @_ZdlPv(ptr noundef nonnull %1) #24
  resume { ptr, i32 } %6
}